#include <math.h>
#include <stdio.h>
#include <stdlib.h>
#include <string.h>

int main(){
	int a[100],i,n;
	float ave,b[100],k=0,m=0,t=0;
	scanf("%d\n",&n);
	for(i=0;i<n;i++)
	{     
        scanf("%d",&a[i]);  
		m=m+a[i];
	}
	ave=(float)m/n;
	

	for(i=0;i<n;i++)
	{
		b[i]=fabs((float)(a[i]-ave));     
		if(b[i]>k)
		      k=b[i];
			 
	}
	    
    for(i=0;i<n;i++)
{		
		if(b[i]==k){
			t++;
			if(t==1)
			printf("%d",a[i]);
			else printf(",%d",a[i]);
	}
	}
	return 0;
}